target datalayout = "e-m:e-p270:32:32-p271:32:32-p272:64:64-i64:64-i128:128-f80:128-n8:16:32:64-S128"
target triple = "x86_64-unknown-linux-gnu"

%"class.node::inspector::ProtocolHandler" = type { ptr, ptr, %"class.std::unique_ptr" }
%"class.std::unique_ptr" = type { %"struct.std::__uniq_ptr_data" }
%"struct.std::__uniq_ptr_data" = type { %"class.std::__uniq_ptr_impl" }
%"class.std::__uniq_ptr_impl" = type { %"class.std::tuple" }
%"class.std::tuple" = type { %"struct.std::_Tuple_impl" }
%"struct.std::_Tuple_impl" = type { %"struct.std::_Head_base.1" }
%"struct.std::_Head_base.1" = type { ptr }
%"class.node::inspector::(anonymous namespace)::WsHandler" = type <{ %"class.node::inspector::ProtocolHandler", { i64, i64 }, { i64, i64 }, i8, [7 x i8] }>

; Function Attrs: mustprogress nounwind uwtable
define internal void @_ZN4node9inspector12_GLOBAL__N_19WsHandler18CloseFrameReceivedEv(ptr noundef nonnull align 8 dereferenceable(57) %this) #0 align 2 {
entry:
  %this.addr = alloca ptr, align 8
  store ptr %this, ptr %this.addr, align 8
  %this1 = load ptr, ptr %this.addr, align 8
  %OnCloseSent = getelementptr inbounds %"class.node::inspector::(anonymous namespace)::WsHandler", ptr %this1, i32 0, i32 1
  store { i64, i64 } { i64 17, i64 0 }, ptr %OnCloseSent, align 8
  call void @_ZN4node9inspector12_GLOBAL__N_19WsHandler9SendCloseEv(ptr noundef nonnull align 8 dereferenceable(57) %this1)
  ret void
}