; Function Attrs: mustprogress nounwind uwtable
define internal void @_ZN4node9inspector12_GLOBAL__N_19WsHandler18CloseFrameReceivedEv(ptr nocapture noundef nonnull align 8 dereferenceable(57) %this) #0 align 2 {
entry:
  %OnCloseSent = getelementptr inbounds i8, ptr %this, i64 24
  store i64 17, ptr %OnCloseSent, align 8
  %OnCloseSent.repack1 = getelementptr inbounds i8, ptr %this, i64 32
  store i64 0, ptr %OnCloseSent.repack1, align 8
  tail call fastcc void @_ZN4node9inspector12_GLOBAL__N_19WsHandler9SendCloseEv(ptr noundef nonnull align 8 dereferenceable(57) %this)
  ret void
}